target datalayout = "e-m:e-p270:32:32-p271:32:32-p272:64:64-i64:64-i128:128-f80:128-n8:16:32:64-S128"
target triple = "x86_64-pc-linux-gnu"

%"class.icu_77::UObject" = type { ptr }
%"class.icu_77::NumberFormat" = type <{ %"class.icu_77::Format", i8, [3 x i8], i32, i32, i32, i32, i8, i8, [4 x i16], [2 x i8], i32, [4 x i8] }>
%"class.icu_77::Format" = type { %"class.icu_77::UObject", ptr, ptr }

; Function Attrs: mustprogress uwtable
define void @_ZN6icu_7712NumberFormat24setMinimumFractionDigitsEi(ptr noundef nonnull align 8 dereferenceable(60) %0, i32 noundef %1) unnamed_addr #1 align 2 {
  %3 = alloca ptr, align 8
  %4 = alloca i32, align 4
  store ptr %0, ptr %3, align 8, !tbaa !40
  store i32 %1, ptr %4, align 4, !tbaa !14
  %5 = load ptr, ptr %3, align 8
  %6 = load i32, ptr %4, align 4, !tbaa !14
  %7 = call i32 @uprv_min_77(i32 noundef %6, i32 noundef 127)
  %8 = call i32 @uprv_max_77(i32 noundef 0, i32 noundef %7)
  %9 = getelementptr inbounds nuw %"class.icu_77::NumberFormat", ptr %5, i32 0, i32 6
  store i32 %8, ptr %9, align 8, !tbaa !50
  %10 = getelementptr inbounds nuw %"class.icu_77::NumberFormat", ptr %5, i32 0, i32 5
  %11 = load i32, ptr %10, align 4, !tbaa !49
  %12 = getelementptr inbounds nuw %"class.icu_77::NumberFormat", ptr %5, i32 0, i32 6
  %13 = load i32, ptr %12, align 8, !tbaa !50
  %14 = icmp slt i32 %11, %13
  br i1 %14, label %15, label %19

15:                                               ; preds = %2
  %16 = getelementptr inbounds nuw %"class.icu_77::NumberFormat", ptr %5, i32 0, i32 6
  %17 = load i32, ptr %16, align 8, !tbaa !50
  %18 = getelementptr inbounds nuw %"class.icu_77::NumberFormat", ptr %5, i32 0, i32 5
  store i32 %17, ptr %18, align 4, !tbaa !49
  br label %19

19:                                               ; preds = %15, %2
  ret void
}